; Function Attrs: mustprogress uwtable
define hidden void @_ZN12mpff_manager11significandERK4mpffR11mpz_managerILb0EER3mpz(ptr noundef nonnull readonly align 8 captures(none) dereferenceable(89) %0, ptr noundef nonnull readonly align 4 captures(none) dereferenceable(8) %1, ptr noundef nonnull align 8 dereferenceable(600) %2, ptr noundef nonnull align 8 dereferenceable(16) %3) local_unnamed_addr #3 align 2 {
  %5 = load i32, ptr %0, align 8, !tbaa !13
  %6 = getelementptr inbounds nuw i8, ptr %0, i64 8
  %7 = load ptr, ptr %6, align 8, !tbaa !3
  %8 = load i32, ptr %1, align 4
  %9 = lshr i32 %8, 1
  %10 = mul i32 %9, %5
  %11 = zext i32 %10 to i64
  %12 = getelementptr inbounds nuw i32, ptr %7, i64 %11
  tail call void @_ZN11mpz_managerILb0EE10set_digitsER3mpzjPKj(ptr noundef nonnull align 8 dereferenceable(600) %2, ptr noundef nonnull align 8 dereferenceable(16) %3, i32 noundef %5, ptr noundef %12)
  ret void
}